; Function Attrs: mustprogress nounwind uwtable
define dso_local void @_ZN4llvm2cl22AddExtraVersionPrinterESt8functionIFvRNS_11raw_ostreamEEE(ptr noundef %0) local_unnamed_addr #0 {
  %2 = load atomic i64, ptr @_ZL13CommonOptions acquire, align 8
  %.not.i.i = icmp eq i64 %2, 0
  br i1 %.not.i.i, label %3, label %_ZN4llvm13ManagedStaticIN12_GLOBAL__N_124CommandLineCommonOptionsENS_14object_creatorIS2_EENS_14object_deleterIS2_EEEptEv.exit

3:                                                ; preds = %1
  tail call void @_ZNK4llvm17ManagedStaticBase21RegisterManagedStaticEPFPvvEPFvS1_E(ptr noundef nonnull align 8 dereferenceable(24) @_ZL13CommonOptions, ptr noundef nonnull @_ZN4llvm14object_creatorIN12_GLOBAL__N_124CommandLineCommonOptionsEE4callEv, ptr noundef nonnull @_ZN4llvm14object_deleterIN12_GLOBAL__N_124CommandLineCommonOptionsEE4callEPv) #25
  br label %_ZN4llvm13ManagedStaticIN12_GLOBAL__N_124CommandLineCommonOptionsENS_14object_creatorIS2_EENS_14object_deleterIS2_EEEptEv.exit

_ZN4llvm13ManagedStaticIN12_GLOBAL__N_124CommandLineCommonOptionsENS_14object_creatorIS2_EENS_14object_deleterIS2_EEEptEv.exit: ; preds = %1, %3
  %4 = load atomic i64, ptr @_ZL13CommonOptions monotonic, align 8
  %.0.i2.i.i = inttoptr i64 %4 to ptr
  %5 = getelementptr inbounds i8, ptr %.0.i2.i.i, i64 1424
  %6 = load ptr, ptr %5, align 8
  %7 = getelementptr inbounds i8, ptr %.0.i2.i.i, i64 1432
  %8 = load ptr, ptr %7, align 8
  %.not.i = icmp eq ptr %6, %8
  br i1 %.not.i, label %21, label %9

9:                                                ; preds = %_ZN4llvm13ManagedStaticIN12_GLOBAL__N_124CommandLineCommonOptionsENS_14object_creatorIS2_EENS_14object_deleterIS2_EEEptEv.exit
  %10 = getelementptr inbounds nuw i8, ptr %0, i64 16
  tail call void @llvm.memset.p0.i64(ptr noundef nonnull align 8 dereferenceable(32) %6, i8 0, i64 32, i1 false)
  %11 = load ptr, ptr %10, align 8
  %.not.i.i.not.i.i.i.i = icmp eq ptr %11, null
  br i1 %.not.i.i.not.i.i.i.i, label %_ZNSt16allocator_traitsISaISt8functionIFvRN4llvm11raw_ostreamEEEEE9constructIS5_JRKS5_EEEvRS6_PT_DpOT0_.exit.i, label %12

12:                                               ; preds = %9
  %13 = getelementptr inbounds nuw i8, ptr %6, i64 24
  %14 = getelementptr inbounds nuw i8, ptr %6, i64 16
  %15 = tail call noundef zeroext i1 %11(ptr noundef nonnull align 8 dereferenceable(16) %6, ptr noundef nonnull align 8 dereferenceable(16) %0, i32 noundef 2) #25
  %16 = getelementptr inbounds nuw i8, ptr %0, i64 24
  %17 = load ptr, ptr %16, align 8
  store ptr %17, ptr %13, align 8
  %18 = load ptr, ptr %10, align 8
  store ptr %18, ptr %14, align 8
  br label %_ZNSt16allocator_traitsISaISt8functionIFvRN4llvm11raw_ostreamEEEEE9constructIS5_JRKS5_EEEvRS6_PT_DpOT0_.exit.i

_ZNSt16allocator_traitsISaISt8functionIFvRN4llvm11raw_ostreamEEEEE9constructIS5_JRKS5_EEEvRS6_PT_DpOT0_.exit.i: ; preds = %12, %9
  %19 = load ptr, ptr %5, align 8
  %20 = getelementptr inbounds i8, ptr %19, i64 32
  store ptr %20, ptr %5, align 8
  br label %_ZNSt6vectorISt8functionIFvRN4llvm11raw_ostreamEEESaIS5_EE9push_backERKS5_.exit

21:                                               ; preds = %_ZN4llvm13ManagedStaticIN12_GLOBAL__N_124CommandLineCommonOptionsENS_14object_creatorIS2_EENS_14object_deleterIS2_EEEptEv.exit
  %22 = getelementptr inbounds nuw i8, ptr %.0.i2.i.i, i64 1416
  tail call void @_ZNSt6vectorISt8functionIFvRN4llvm11raw_ostreamEEESaIS5_EE17_M_realloc_insertIJRKS5_EEEvN9__gnu_cxx17__normal_iteratorIPS5_S7_EEDpOT_(ptr noundef nonnull align 8 dereferenceable(24) %22, ptr %6, ptr noundef nonnull align 8 dereferenceable(32) %0)
  br label %_ZNSt6vectorISt8functionIFvRN4llvm11raw_ostreamEEESaIS5_EE9push_backERKS5_.exit

_ZNSt6vectorISt8functionIFvRN4llvm11raw_ostreamEEESaIS5_EE9push_backERKS5_.exit: ; preds = %_ZNSt16allocator_traitsISaISt8functionIFvRN4llvm11raw_ostreamEEEEE9constructIS5_JRKS5_EEEvRS6_PT_DpOT0_.exit.i, %21
  ret void
}